; Function Attrs: nounwind uwtable
define dso_local void @SetArchiveOptions(ptr noundef writeonly captures(none) initializes((0, 16)) %0, ptr noundef %1, ptr noundef %2) local_unnamed_addr #0 {
  %4 = icmp eq ptr %1, null
  %5 = icmp ne ptr %2, null
  %or.cond = and i1 %4, %5
  br i1 %or.cond, label %6, label %8

6:                                                ; preds = %3
  %7 = tail call ptr @dumpOptionsFromRestoreOptions(ptr noundef nonnull %2)
  br label %8

8:                                                ; preds = %6, %3
  %.0 = phi ptr [ %7, %6 ], [ %1, %3 ]
  store ptr %.0, ptr %0, align 8
  %9 = getelementptr inbounds nuw i8, ptr %0, i64 8
  store ptr %2, ptr %9, align 8
  ret void
}